(dp1
S'City of God'
p2
(lp3
S'Alexander Lee What the fuck the trailer is so shitty it makes the movie look terrible This is one of the greatest movies ever made but trailers are usually misleading just all the new movies have awesome trailer but Watch it you will not regret it \xef \xbb \xbf Alejandro Jim \xc3 \xa9 nez This Movie sooooo fucking A true masterpiece but this trailers looks way too much It does make justice to City of \xef \xbb \xbf Pimsleur Approach The Best of Brazilian film and one of the best films of the last decade City of God \xef \xbb \xbf J3TPILOT1991 Hahaha you sound like an ignorant child that never completed the first Go back to school you lowlife scum of the Maybe if you stop talking like a 2 year old and start acting like an Adult people might But you ramble made no sense and was more racist than me calling you a Porch Monkey you do like it do you well too bad Do onto others what you wish them to do on to you if you do understand the concept do bother I caught this movie on sky movies by accident an to this day I do regret iitcarameloxx a good ass fucekn this shit was fucken awsome TheUnseen97 soonermagic24 take it like this will be the greatest film you ever and over and over againexxxxtrakokos ChandlerBing1993 You watched transformers way toooo many times kidgio9191 the best moviearki jec i think tihs movie is one of the greatest of all must watched this before you no boring stuff 1out of 10 i give 10 benny rules TheUnseen97 reformedman go hate somewhere NO POINT IN THIS MOVIE WAS IT BORINGBrunna arsenalli21 you want to know the music of the end of the trailer EpicButt City of Nah did liked Too Dragon Yeah He a FUCK BOY A Fuck Toy THIS MOVIE ROCKS knottyvideo IRESISTIBLE E EXUBERANT CHRONICLE OF CRIME THE NEW YOR TIMESvitormaluco METAMORFOSE AMBULANTE Raul SeixasRog A Must SeeWilvin Crawford eannawenker Both trailers are not that good and do really do the film This movie fucking sucked It was sooooo boring Bunch of fucking faggots in this movie Felipe WsG metamorfose Raul Seixas4pl3x greatest fucking movie everHenryGlove4 OF anolog mer by the lakeSomdeReggae blackboysports i never heard of a latino obama is not black hahaha if i heard you on the street talking like this i give you some money and tell you to get a \xc3 \xaa est \xc3 \xa1 ficando louco Garykelleher123 philipmcjim Yeh i downloaded it in high Unbelievable movie '
p4
asS'Crouching Tiger, Hidden Dragon'
p5
(lp6
S'Tommy Vercetti What the theme in this trailer \xef \xbb \xbf StageRight33 I remember growing up in JAMAICA and back in 1991 John Woo Killer starring Yun Fatt was first VHS movie I see serve for an entire community The locals play that movie until it runs red movie are the movie that make we Jamaicans start to watch subtitle Jet Lee took over the entire Island by storm in Asian movies \xef \xbb \xbf totalanimaltheshow trailer boss \xef \xbb \xbf Spartacus Awsomus OH NO THE FIRE NATION BE ATTACKIN AGAIN \xef \xbb \xbf Baazigar Dogra like \xef \xbb \xbf Marina Vujicic Karen Fischelt And this one \xef \xbb \xbf Edel This is the movie trailer Tiger Hidden Dragon my awesome and dear friend Felicia Farerre sang on many years ago The music for this movie trailer was also used for The Man in the Iron Mask Leonardo DiCaprio The Man in the Iron Mask Official Trailer 2 G \xc3 \x89 rard Depardieu Movie 1998 HD Damn what a voice \xef \xbb \xbf MrDozip sorry if my previous comment was offensive i have learned something new and ill keep that in Ayaan Ali CPNICHOLLS House of Flying Daggers 2004Mohammad Houtary Don LaFontaine the famous movie trailer voice announcer known for the catchphrase In a world In a land In a time that often appears in movie trailers died in He recorded over film trailers and thousands of television zimonslot Most romantic movie i ever Extrordinairy 1 of my absolute CPNICHOLLS Barney Adventuresaleksanderl Where can I find the song where the woman sings at the beginning What is the song called CPNICHOLLS MikeyCanDoIt Yes I have found it have said many times its Aeon Flux Yet people keep replying to me with there guesses Please people I know what it is now Do not reply anymore please fitchmate2321 Where my Best Picture Oscar Rebecca Robinson my favorite movieDasha I looooove the movie although the trailer is horrible Media by Aaron Holy fuck the music for this trailer is lol wat a piece of shit trailer for such a great movielonrot HD my hidden assmoh10ly LMAO marneebox what was the purpose of this film story again Field of View I really do I think it because this was uploaded back when the HQ button was around '
p7
asS"Pan's Labyrinth"
p8
(lp9
S'tuliplite Best horror movie ever \xef \xbb \xbf glitter spun great film \xef \xbb \xbf TheJennRogue Pan labyrinth Shay C \xef \xbb \xbf LadyDanielle Zana you seen this I just mentioned it very nice movie fairytale for adults \xef \xbb \xbf legoo legands Oka DWei Wen Tan This is one of the creepiest films I watched in a while and it was really I recommend it for people who likes original fantasies or want a break from typical hollywood It can be quite intense just a warning for scaredy cats like ARTUROTV espa \xc3 \xb1 is mexican movieRin8Kin Why teases tend to spoil a lot of information you need to get at the right time mako miura what language is the movie profeta ARTUROTV spa \xc3 \xb1 is mexican moviePrincessAttica it super creepy but also super coolTrailersPlaygroundHD None '
p10
asS'The Pianist'
p11
(lp12
S'Nikki Rockers best film of all time \xef \xbb \xbf Dietrich Kaiser Fantastic \xef \xbb \xbf Wojtek Gerber Shalom Pianist jest jednym z najlepszych filmow jakie widzialem Pozdrawiam wszystkich ktorzy maja podobne zdanie Beste Gr \xc3 \xbc \xc3 \x9f e f \xc3 \xbc r alle Juden Kapitan Jack Baxma \xc4 \x9f a d \xc9 \x99 y \xc9 \x99 r \xc9 \x99 la II D \xc3 \xbc nya m \xc3 \xbc harib \xc9 \x99 sind \xc9 \x99 n b \xc9 \x99 hs \xef \xbb \xbf '
p13
asS'Brokeback Mountain'
p14
(lp15
S'Disney0702 I do understand Ang Lee at all How did he manage to put awkward \xf0 \x9f \x98 \xaf and tearfully sad \xf0 \x9f \x98 \xad together to make one of the most beautiful movies of our time It such a shame that we do get movies like this \xef \xbb \xbf galanoth17 faggot propaganda \xef \xbb \xbf AjBlog100 Lol my first thought was Should it be called Bareback Mountain but I like this movie \xef \xbb \xbf Michael Jarrett Shawshank redemption theme \xef \xbb \xbf Diane Dickens Stop being What a sad \xef \xbb \xbf michelle dalton My husband and I walked out of this It was gay enough for \xef \xbb \xbf Susan Jenkins Well since we going to be working together recon we need to be butt fucking together lol \xef \xbb \xbf StolenAf1 Nigga has anne hathaway but prefers dick smh \xef \xbb \xbf nAIL pOlishLover wonderful movie just amazing \xef \xbb \xbf watterwalker I love this movie I can recommend the assassination of jesse james by the coward robert ford for you who enjoyed this movie as well \xef \xbb \xbf DominoThomas1234 Plot i love dicks in my butt me2 \xef \xbb \xbf Sydney Sweezy Where the hell can I find this movie I wan na watch it \xef \xbb \xbf Mehmet Baran Akda \xc4 \x9f \xc4 \xb0 BNE KOYBOYLAR \xef \xbb \xbf blahblahblah Is this a movie about two hot cowboys that like each other but marry women even though they do like women \xef \xbb \xbf Avalon Young Nice movie \xef \xbb \xbf tw0anastasia Such a beautiful \xef \xbb \xbf Best Gay Ads Pink AccuraCast The greatest gay movie ever \xef \xbb \xbf Ivan Espinoza they wast gay it was just two boy who need in deep love MissRoee The Wings by Gustavo Salaolalla or smthn like that But look for the instrumental I feel like someone singing to it kinda downgrades the vibeFollowerOfPan First rule of life Heath Ledger is the King Midas of filmmaking Everything he touches is Rose Oh yeah Try Another gay movie 1 and Then this wo seem as Styles Larry StylinsonLGBTcinema I could agree more asha one of the most beautiful films i seen to Definitely in my top should i give this movie a shot need something to break my damn that builds up in the summer '
p16
asS'Yi Yi'
p17
(lp18
S'Assmouth06 This is my second favorite movie of all behind Boogie \xef \xbb \xbf Asif Hussain Love is the only word for I make a point of watching this movie once a Janssen Exactly how does this film have the same style as Bergman I found it sometimes slightly reminiscent of Ozu but in a modern more banal Thank you for this trailer gergsar This is simply a great Briggs I just saw this This beats anything I seen of French New Wave Igmar Bergman Even \xe8 \xbf \x99 \xe4 \xb8 \xaa \xe7 \x94 \xb5 \xe5 \xbd \xb1 \xe7 \xbb \x99 \xe4 \xba \x86 \xe6 \x88 \x91 \xe5 \xbe \x88 \xe6 \xb7 \xb1 \xe5 \x88 \xbb \xe7 \x9a \x84 \xe5 \x8d \xb0 \xe8 \xb1 \xa1 \xe3 \x80 \x82 ahkim87 but in terms of who is the greater filmmaker it but i do think on these terms when it comes to both these there is little use to even compare filmmakers in this calibur iBoYube so funny cute little boy 0 21 lolluksm77 I love Bergman but I always feel like it kind of Like he giving a lecture about his point of view in Not really in a arrogant way but This film has the same style of Bergman but let you take your own It does hand you down a certain belief to ahkim87 too different from french new wave or better than bergman i do know about that but it up there in my book with him '
p19
asS'Avatar'
p20
(lp21
S'PostOfficers this is our land says the white guy in a native body \xef \xbb \xbf King Kid Terrible Seemed like it was made by some Does even capture half of what the movie is \xef \xbb \xbf ThunderWindz I love the part that no one knows what the music at 1 36 D \xef \xbb \xbf Lukas Danford Avatar 2 Releasing Plot synopsis The RDA unbound by the Outer Space Treaty signed two centuries earlier returns to Pandora and bombards the surface from orbit with nuclear antimatter and kinetic Or maybe Chemical or The entire planet suffers a mass extinction and mining teams in Hazmat suits mine the Too expensive Well Unobtanium happens to sell for 20 million a kilo and they have it Go Humans \xef \xbb \xbf Faridl manzarek suck movie \xef \xbb \xbf Murilo Melo i ca believe 4 years have passed \xef \xbb \xbf Tariqslo It proves more money does necessarily make a good movie \xef \xbb \xbf sayenshin Look people you can deny for all you want but the facts do Over BILLIONS made at the box office means a great load of people loved the movie I sorry it did have that feeling on you but I experienced it and it was amazing I did have any expectations whatsoever and I think it paid a lot The plot is not that complicated but the detailed world and the dynamic of the movie was Not once did I noticed the computer generated animations that were the Navi maybe because I suspended my disbelief for three hours I really do understand some critics saying the story lacked complexity while critics are covering with gold the movie which has less story It like a hero some people like to bring him down was exceptionnal \xef \xbb \xbf DredWolfster A very entertaining movie It marked a turning point in the year 2009 when we had finally kicked out Bush Jr and sworn in Dubya and Cheney left the political scene with their hotly opposed wars and subsequent major economic collapse this movie makes a nice response to the obscene orgy of war violence aka The War On Terror and it darkness that gripped the world attention for the better part of the \xef \xbb \xbf Kl \xc3 \xa1 ra Hed \xc3 \xa1 nkov \xc3 \xa1 I just love it \xef \xbb \xbf Shubham Patel In the history of Hollywood movies one of the best and costly movie is James They have used 237 million and they have earn \xef \xbb \xbf Vlad GURDIGA Just in case \xe2 \x80 \xa6 \xef \xbb \xbf Kendrick Disch I still have seen I think I was just turned off by the whole hyped up 3D thing so I had negative associations with this Just came across this trailer and now it high on my Might try and watch it this \xef \xbb \xbf drekson23 I love this trailer but when I saw the complete movie it was that Not today but this type of story has been done so many It nothing groundbreaking is what the guy probably tried to The story is not very xpresion Best Movie Mackiatoe Still nothing of this scale had been done to that How is this unoriginal Izabele Gabriliunaite What is this soundtrack From The regurgitation of the american film Or the fact that movie studios are to scared to put money into something new so they churn over the same crap for a new Tell MrShadly01 The dialogue totally rapes this movie for It just so well I guess we better stop him Zaia I BLUE DA BA DEE DA BA DAEOlivia Lim They have sent us a message that they can take what they Well we will send them a message that this THIS IS OUR LAND Natcon i remeber when back in the days 4 years ago i thought this mive will be shit i start to be intrested in and by the premiere i got very excitied yep it looked awesoem even if saw it just in 3d and not i imax and now i thought funny and charming if I see its trailer that i highly keep one of the best trailers in the movie world even the news were talking but now it rather seems just simply average or a bit over of but we all know there will be a second movieemmelinelf this trailer makes the movie look cheesy '
p22
asS'Mulholland Dr'
p23
(lp24
S'SuperMario16bit Indeed not only a masterpiece but Lynch best and my favorite movie of all this trailer doesnt do the film Mulholland Drive is a TV Tropes was Trailers do dodiedeath1985 one of my top 5 Naomi mmmjohancakep does look like HD to Duro Amore None '
p25
asS'Lord of the Rings: The Return of the King'
p26
(lp27
S'evianGOWlover the best trilogy of all time < 3 \xef \xbb \xbf Nick sysysyy I know I am a bit late in becoming a LOTR I have a few questions if any of you would be kind enough to Question number 1 How many types of races happen to be in this trilogy 2 Who Valar 3 I know the lluvatar is like God so why wo he kill Sauron to end all this 4 Who created Sauron in the first place 5 Why did Sauron turn the 3 Elven Rings evil 6 Are all the movies the same plot Are they all 1 adventure cut into three pieces My last question Can anyone write a list of every important character and define them Who they are or what they are supposed to do This would be massive help to me I started yesterday evening 12 hours ago so I am missing some crucial answers Thank you \xef \xbb \xbf Sherry It never gets \xf0 \x9f \x91 \x8d \xef \xbb \xbf MiyuChan I remember when the movie came I was so excited and couldnt wait to see I was sure though I wouldnt see it on opening That day after I got home from school I relaxed at home for a bit but then mom and dad said they were going to see a movie and told me to come I knew though it wouldnt be Return of the King since they never saw the other But when we got to the theatre and got our tickets they said the movie and I just jumped up and down in excitement We had to wait in line for an hour and a half in front of the The people coming out from the previous showing were cheering and I knew it would be 3 and a half hours later I came out with a huge smile on my face and almost crying I still watch the films to this \xef \xbb \xbf Randomstuff176 No offence but luckily there were no jews to ruin this film \xef \xbb \xbf Voice Sorry guys but this trilogy was FAR more superior to Harry Potter 8 FAN DEBATE \xef \xbb \xbf Tlevids No Denethor or Faramir Seriously \xef \xbb \xbf Resimaster Easily one of the BEST trailers and films in cinema \xef \xbb \xbf Im Drift star wars is better though \xef \xbb \xbf Guard655 These movies will never become old the CGI is not very much in these movies and the CGI there is is very These movies will live for MANY They are \xef \xbb \xbf iamSnip3rOne Now its a decade for such a film this doesnt look a day old D \xef \xbb \xbf Garrus Vakarian One of the few movies that are way better that the I mean its like the movie is divine stuff and trailers suck D \xef \xbb \xbf Rory Lennon best film of all \xef \xbb \xbf Poffo Ortiz My this trailer is The Return of the King has to be one of the greatest movies of all time Seeing this trailer just brings it all back for It was the winter of 2003 i had just graduated college and i saw it with my roommate a girl i was dating and my mom and i swear i must cried at least 3 times Especially at the end when Sam carries Frodo up the side of Mount holyshit i was balling I loved everything about it it was so goddamned entertaining and engaging a completely emotional The action the drama the music the the incredible visual effects and the realism of i could go on and After waiting so long and seeing each film every Christmas i felt like I experienced the journey with them i felt so connected to all the The build up and the excitement was These films are truly a I really enjoying the Hobbit now as well and they seem to be getting better with each film but i think i will always be partial to LOTR May the Maiar bless you Peter Jackson for what you have created and may your work always be remembered and revered for all time Mr Truly you were a literary genius Thank you for sharing your books with the \xef \xbb \xbf Jameson Grilley I really really love the hobbit movies and coming from a person who read the books first and preferred the hobbit these new movies dont feel to me like say the star wars prequels as they do to I like the lighter tone but I wish it were more serious at I really do it never feels like theyre in any danger just when i feel like the new one is more in line with lotr a fucking dwarf starts taking out orcs by rolling a barrel over Like come on youre not letting me feel the emotions i felt in lotr when it was like they werent going to Also wtf was that liquid gold about man come I was so in love with that movie until that In awe of Cumbies performance and feeling bilbos fear in my heart and then swoop they pull the rug out from under my by balancing thorin on the nose of a 200 ft tall fucking dragon and riding a wheel I was literally cringing and thinking why o why did you just ruin it for \xef \xbb \xbf PoisonHW I know those movies by heart but even the trailers give me chills They are the bests of all \xef \xbb \xbf Somar29 Rewatching this film does anyone feel that the Hobbit films feel and look low budget in comparison they also feel too family friendly with the choice of music and \xef \xbb \xbf Rick Wow the trailer is awesome but the movie is even You do see that very often \xef \xbb \xbf iamSnip3rOne This cinematic masterpiece unrivaled will be ten years old in 15 \xef \xbb \xbf NIGHT2PWN it an epic tale Bilbo Baggins what is the Epic Track called at 1 40 Tommy Weber Damn it I watched this and started DAMN YOU PETER JACKSON AND JRR TOLKEIIIIIIIIIIN mmmmmmmm My top three movies dark knight trilogy batman return of the king trilogy lord of the rings revenge of the sith star wars ultrasapo11 I just ca believe that this was 10 years '
p28
asS'The Departed'
p29
(lp30
S'Rahhimidoff Hahaha the twins in a movie together \xef \xbb \xbf Nemanja Jovanovic Great movie Just watched it Even if you are not into cop stuff you will like this one \xef \xbb \xbf Mohammed Rizvi Im shipping up to Boston \xef \xbb \xbf Alice Carranza Martin Scorsese is the \xef \xbb \xbf Tasmin Voce This is such an amazing bloody film One of my favorites from one of my favorite actors Leonardo DiCaprio A brilliant film a brilliant cast and a brilliant director directing it \xef \xbb \xbf PoshMillyT This was the last movie Leo looked young in he could play a kid in anything after this anymore I remember him playing a kid or really young guy all the time After this he bulked up and has grown into a fine young I thought he would look young forever lol \xef \xbb \xbf mohamed el mandili c \xef \xbb \xbf Tyler Hawkins only scorsese can make a movie that would be better than the trailer \xef \xbb \xbf Anthony Minor inspired by the mob boss james whitey bulgar from boston google winter hill mr bulgar whos 84 jus got convicted to two life terms he killed 11 ppl drug king pin n Damn boston n here i thought boston was lame n corny lmao dat must jus b the hockey team go blackhawks \xef \xbb \xbf Mad Murdock My top 10 of all time \xef \xbb \xbf PoshMillyT Leo was creepy good in this Scorsese really brings something out in his actors \xef \xbb \xbf keysersoze182 good movie good ending is abit random \xef \xbb \xbf MuirNathan Best Movie Ever \xef \xbb \xbf Imite Beerong Infernal Affairs is way \xef \xbb \xbf Jerome khan they definitely need to make a sequel \xef \xbb \xbf MrJensen54 this is a movie the true masterpiece a martin scorsese classic movie not a garbage of a chinese or japanese infernal affairs \xef \xbb \xbf RinRin4o1 I love this movie \xef \xbb \xbf Dodsy D Read the The fact that a mole is inside the state police is a huge secret in the Emily Marie I did think I would like this movie at Turns out I LOVED it It so well it was the envelope he had on his desk that read SHAAAWKY Oh shit Matt Damon And Marky Mark Wahlberg Greatest movie Comic Book GuyThomas Hsi ROBERT KILLER HAVE SERIAL NUMBERED HA HA MOTHERFUCKERS SnuffDizz now gim me fucking shelter or do i have to shoot baprejmer Jesus you are an idiotGannicus Its all about the rats '
p31
asS'No Country for Old Men'
p32
(lp33
S'lolumadbro69 This movie that great good acting and all but man a dull story \xef \xbb \xbf Ivo Teixeira If you liked Fargo you probably like this but if you did like me you will not It not the begining nor the end of a story it the middle of one There some great acting but it in my view wasted in a uninteresting plot and a uneventful There some interesting dialogues a lot of killing and lots of blood however there no action no drama no But it did won an Oscar not that means anything nowadays so I leave it up to See it and judge for \xef \xbb \xbf john bayern One of the best acting i have ever seen by Javier Bardem The next one by Christoph Waltz at Inglourious Basterds \xef \xbb \xbf midnight15086 I hate cheesy corny dumb happy I love this movie so much It gritty and All the actors were so good even the little supporting roles and Bardem was awesome as It not formulaic it not predictable it not a feel good It reminds me of the tone of a lot of foreign \xef \xbb \xbf TigreLoko24 Is this movie worth it Used for I plan on buying it to see it what do say \xef \xbb \xbf Marcos YEAH Gta \xef \xbb \xbf Rom \xc3 \xa1 n Lopez Legorbur \xc3 \xba I love this film the best part is when he is in the gas station with old men and he trhows the coin the best part \xef \xbb \xbf Madeline Shaw How many Cohen brother movies involve the name Llewelyn \xef \xbb \xbf Ogul Ozturk This film was brilliant \xef \xbb \xbf Arne Didrik Gr \xc3 \xb8 n \xc3 \xa5 s GAYYYYYYYYYYYYYYY \xef \xbb \xbf Jos \xc3 \xa9 Abel Salazar Liz \xc3 \xa1 rraga I enjoyed it very much sad thing Lewelyn Moss \xef \xbb \xbf Steven Culkin The best part about this movie is SPOILER you think you watching an action thriller and then it ends you realize you were watching a drama with a commentary on life and it The end angered me and then about 20 min later it clicked and now I ca wait to watch it again \xef \xbb \xbf HAWDENG Hawrame Actors in this film performed so well the got nominated for an award \xef \xbb \xbf panchotheaddict420 Talk about about being cheated out of a great movie Fuck you the guy who wrote this story u fucking buzzkill \xef \xbb \xbf Duckfancomedy Call it \xef \xbb \xbf UnknownJanjer Stelio \xef \xbb \xbf Gina Marie What was up with the ending of this damned movie I was so pissed at the ending the movie was excellent up until Any ending is better than NO It like the movie ended in the middle I also hated that you know who got killed in case you have seen it not saying who but they never showed his body so I thought it was a faked death right up until the credits WTF A bad ending a sad ending a happy ending but SOME damned ending would have been This is what I watched last night any suggestions for tonight and please nothing this screwed i really loved this movie until then too \xef \xbb \xbf Kenneth Griffin You too can transform to a higher state of consciousness as even if you believe from a overtime and came to realize that maybe you should avoid a Robot with a horrendous haircut for a man no sense of taste he is a killing robit no regard for HEALTHY GLOBAL ENVIRONMENT IN BALANCE WITH NATURE AND GOVERNING LAW TO MAKE THE EARTH AS HEALTHY AS POSSIBLE VIA NATURAL REOCCURRING LOVE IN A NEW EDEN thus also consider that you may want to avoid where in though your own hearts choosing your path will be forced to intersect and taking and causing possibly more innocent law enforcement chaos via an turned into ergo i always knew to avoid this of it together I believe there is more to life than Bless my soul and show me the AMEN < Warning Avoid all for God sakes as Denny Gene Snyder McDonald Leo Lion DiCaprio McGarry Beery always said with Bushmills pulsating in bloodstream and the most addictive drug known to mankind NICOTINE and also the most lethal so we were always cautious we we slurred the words as Denny to the voice intercalm For fucks sake ma his boots are Will you please have a little appreciation and class for good movies jesus fucking christ out of Me quiet approval while i was silently judging them in a and consider the and nature of everything is to goal of what Power Deadly reptile boots and that is just the start of what he may or may not have in store for those that open the wrong doors My Opinion KG3 \xef \xbb \xbf Christian \xef \xbb \xbf Irresistible Effect Film Quote of the Day What the most you ever lost on a coin toss No Country for Old Men 2007 \xef \xbb \xbf Howard Fiend this movie was fucking exciting to watch my heart was racing and shizzSomeTotalRandom That FUCKING door nob scene YOU KNOW its coming YOU KNOW yet you still fucking jump out of your seat DoneWithDogma Yes well I think the death just enriches the punch to it like Omni pointed out you do expect it making it more I do see why it has to be like every single movie ever then it would be unique it a way of saying that the perspective of the plot does change the outcome of the plot and that exactly why I love this Just looking for what coming well no one ever sees that MrSideburn912 great it is the point and it is one of the best movies i ever Just cause it depressive does mean it bad dislike give me a break '
p34
asS'There Will Be Blood'
p35
(lp36
S'bodder777 At 4 with Traffic these took us over America for the past 100 years \xef \xbb \xbf glassessn To anyone wondering the song playing after 1 40 it is called Symphony II Andante by Alan Hovhaness I will be uploading it to my channel \xef \xbb \xbf Scott Northcott I recently said to an acclaimed British If these bloody politician could achieve and attain a balance equilibrium via our finite natural resources energy needs there be bugger all to fight about Quite ironic Daniel film would therefore depict There Wo Be \xef \xbb \xbf Epirc The music is \xef \xbb \xbf mike Lewis GOAT \xef \xbb \xbf halo6534 Am i the only one who thought this movie was total garbage The acting was amazing but the movie itself was just so fucking boring and Moore Why have I watched this film yet It looks so amazing destroECT Zohan sucked cock I rather watch an fat midget orgy for 3 hours than that I love all the films you mentioned except boogie nights but that only because I have seen it but The kinda disappointed I going to give it a second chance and see it again when it comes But the second half of the film really dragged on and the ending pissed me off First half was great though and the characters were really well It almost feels like a spiritual sequel to TWBB and all the talk of reincarnation in the film makes it kinda this is based on Oil by Upton Sinclair thatrussianguy12 Such a powerful bob jmroark80 Punch drunk love was just deprssing No no no no no you got to be drunk to like Adam Sanlder Punch Drunk Love is his BEST film Rick Lewis This is a good question to be asking p3nnynearful Rated R for some It be funny if it said For some blood i hated it when the frogs began to rain my girlfriend and i left in but the rest of his films are terrific EatingChannel Troll much Oceanrust4 Can anybody tell me the noise that happens in the beginning of the movie It incredibly Go watch Expendables 2 or some other similar brainless When you ready for a true piece of cinematic excellence watch There Will Be theonlybeer WHO DRINK YOUR MILKSHAKE I DRINK YOUR MILKSHAKE charliepheonix Because No Country For Old Men came out and equally as good if not better canierthay I am the Third Revelation I am the one god has chosen While winding up with the bowling ball Kind of funny in a twisted rated R when it should be I am living right next to the actual oil fields that take set in this movie i am surprised when i watched the movie because they mentioned southern California and king The town i live in is san ardo and it amazing since my town only has 500 Why didnt this movie win best picture '
p37
asS'The Diving Bell and the Butterfly'
p38
(lp39
S'rabia alesgerova I need to feel strongly to love and admire just as desperately as I need to Dominique Bauby \xef \xbb \xbf Isabella Montoya \xef \xbb \xbf Grant Ford NoneAngela Ronson Ppl may not know who Bauby was so here the His case closely resembles mine in the Knowing who he was may help others know who I am Bauby French 23 April 1952 \xe2 \x80 \x93 9 March 1997 was a French journalist author and editor of the French fashion magazine ELLE On 8 December 1995 at the age of 43 Bauby suffered a massive When he woke up twenty days later he found he was entirely speechless he could only blink his left Called syndrome this is a condition wherein the mental faculties remain intact but most of the body is In Bauby case his mouth arms and legs were his condition he wrote the book The Diving Bell and the Butterfly by blinking when the correct letter was reached by a person slowly reciting the alphabet over and over again using a system called partner assisted Bauby composed and edited the book entirely in his head and dictated it one letter at a This came from Wikipedia https as we do need Do use a couple resources if looking for something very It was the same eye for I say when I opened my eyes but rly it was only 1 The movie is the same title as his The movie has U can prolly rent I saw it on \xef \xbb \xbf nonono200 PAGATY what wrong with it being in french if you just turn the subtitles on then it perfectly simple to understand what going It is called love of the best folladordeprostis emmanuelle seigner is a hot MILFSxnz Appreciate absolutely everything even your body maybe even so far to appreciate your own mind and its thought and your how far can you go If every single thing is appreciate where do YOU stand Who is the appreciator Epsilonic FilthyReech Your Hand In Mine by Explosions In The You should definitely check out their other music too it truly Jaam cinematography looks I excited to see the of Xen1aserman if this happened to me i listen to an epic amount of musicLuisa Lubell trapped in this body and i just ca get outIvkoPivko87 Safaraportugal Thank you so much I was searching for this and you got that all in one Kisses from Slovakia \xc5 \xbd urkul \xc4 \x93 ns One of the hardest movies i have seen in my saw this i had a randevous with a girl we shouldn t go for this movie was 2 years i still remember whole i saw it This movie tells enjoy your you got that chance Bike4life5 FilthyReech Expolosions in the Sky Your Hand in Minejarm152009 this movie makes me appreciate Phelan wan na watch this so baaaadSafaraportugal Explosions in the sky Your hand in mine < 3corbindallas555 rapstreetz You sir are a ing moronchristina21 this movie is ur heartgnarlycorinne Yes he had a stroke which should killed him but due to the advances in modern science we have he was revived but the damage was already done and he was paralyzed in his entire body except for his eyes but only the left could blink and the other could not so they had to sew that one He wrote the entire book The Diving Bell and the Butterfly by blinking his left eye when a nurse would say a He passed away about a week after the book was published wonderful bookEminentKnight Anyone who liked this movie will like Into the Similar kind of allegorical stillvill24 this is where i learned about explosions in the sky < 3SamanthaDawson1 just ordered this cant wait to see itChesterKhan There is no such thing as a worthless life '
p40
asS'Lord of the Rings: The Fellowship of the Rings'
p41
(lp42
S'Sara Samaletdin This one of the rare cases where the film is better than the \xef \xbb \xbf KingofAmerica97 Harry Potter Sorcerer Stone Kicked the living shit out of this film in \xef \xbb \xbf Erin Oughton \xf0 \x9f \x98 \x81 \xf0 \x9f \x92 \xae \xf0 \x9f \x94 \xaf \xf0 \x9f \x90 \xb0 \xf0 \x9f \x98 \x80 \xf0 \x9f \x98 \x82 \xf0 \x9f \x90 \xb1 \xef \xbb \xbf Bernhardina H \xc3 \xb6 rnstein The best movie in the world Although the trailer is crappy D \xef \xbb \xbf Yennxy Cro best trilogy ever \xef \xbb \xbf Marcio Brytho Please someone can tell me what the soundtrack of this trailer thank you \xef \xbb \xbf Jayme Lynn Reed What songs are played in this trailer Does anyone know \xef \xbb \xbf holyfrancis 1 48 This music has been used in the movies has it \xef \xbb \xbf boo bie This movies looks EPIC ca wait for it to come \xef \xbb \xbf Twinpact What a corny ass trailer for an unbelievably amazing movie \xef \xbb \xbf DrVelvetProductions Fuck this I never thought it was possible to make this movie look \xef \xbb \xbf Bernardo Freitas Ned Stark got it coming for him started to get greedy with the ring \xef \xbb \xbf mmmmmmmm Sadly I had the consequence of watching the movies first right now I just finished the chapter where frodo and sam take gollum as there guide and there is not one day where I wish I would have read the books first so please read first tgen watch second \xef \xbb \xbf Laura Macleod Hey Do diss The Lord of the Rings is bloody amazing \xef \xbb \xbf Rulia Lee I really want the book Ca find any in \xef \xbb \xbf Travis Fairman trailer sucks but movie is awesome \xef \xbb \xbf Mei Pratt Haha this trailer looks silly \xef \xbb \xbf Stalker Does someone know the name of the last music of the trailer please \xef \xbb \xbf TaniaDarcy Cult Love this movie \xef \xbb \xbf Lilith Turner I think i going to watch all 3 movies D \xef \xbb \xbf Dasaun McClinton Even the trailer is better than Harry Potter \xef \xbb \xbf Nikka Cayanan Best movie ever \xef \xbb \xbf tomcat76438536820 That army scene at 1 20 that not in any of the films or the extended \xef \xbb \xbf emreboss \xc3 \xb6 zkan 02 00 when does that scene come upp in the movie Ive never seen it \xef \xbb \xbf Junior Braga Since first time I saw this trailer I knew that TLOTR would be a great movie \xef \xbb \xbf '
p43
asS'Traffic'
p44
(lp45
S'William Ogle how in the fuck is 360p HD \xef \xbb \xbf German Cruz This actually is a very good movie \xef \xbb \xbf Juize Vijfentachtig This is a great film \xef \xbb \xbf Kenneth Griffin Evil WAR ON DRUG ium Mind udgement on me please and please forgive me if this offends any soul cts but IAM POOR but rich in I already feel comfortable with my drug of Edited with the backspace at Soul Choice Random Quatnum Mechanics of random conscioussness thought free will as one Love locked in bondage with Evil and I < 3Heartbeat \xef \xbb \xbf caleb thompson I did I never knew what this movie was or if any goodmikelongobardi hiAchwaq Khalid Benicio Del Toro is just amazing Biskota Galaktos YOUR MOMwait wut YIFY plonkies what why Alvy Black who came cuz of cod ghost Hk Khan MeFarok Omar hhhhhhhhhhhhh Good Guess r2c123 all he said was hiBRUTALsniperO Wow the maker if this is writing the new cod ghostSAFFY7411 Big up Dan Jay are we supposed to laugh TheManfromNibiru Reagan said he would win this war Did they name devils Mountain after him BRUTALsniperO JarodSaysFuckYou fuck you scarredk0 hi Duro Amore Nonedavid thomas None '
p46
asS'Mystic River'
p47
(lp48
S'Podegra We bury our sins We wash them clean \xef \xbb \xbf ToNGanStuNNa650 this movie is so \xef \xbb \xbf goonercanuck Kevin Bacon is badass in this \xef \xbb \xbf Keightley60 this guy who does the voice overs in these trailers needs \xef \xbb \xbf Becca Lowry Does anyone know what the song starting at 0 45 is \xef \xbb \xbf Antti Rasinkangas the best Clint movies Sean Penn is great Soleil Magica Do listen to him he probably likes stupid shit with a lot of This movie is brilliant and Sean Pean was extraordinary 088261 I almost done reading the I probably check the movie Emox one of the best drama movies ever i cried at many parts of the film it was the only one which really touched my heart Anne Gordon Kevin Bacon two well thought out movies are Mystic River and A few good Menadoredpromises i confusedMelieb90 lachlanSB awww so you have a heart r is it just gas lmao jk yes it is very sad Ashton Bradley the ending was crazyMichael Jenkins By far one of the best movies I the remains one of the bestadoredpromises ohleo Melieb90 I a guy who doesnt get really touchy feely sort of thing but whe i saw that it brought a tear to my terrible movie i wonder how they managed to fuk up so badly trust me this movie is a waste of 2 hoursadoredpromises ohSoleil Magica Probably one of the best movies i have ever seen in my 1 dislike make me sick nishant thakur mystic movie everAmusemant780 Great filmdiane one of my favorite moviesDaniel Hamberg Clint Eastwood HERO '
p49
asS'Letters From Iwo Jima'
p50
(lp51
S'HangDeath such a good \xef \xbb \xbf Quod Perierat im impressed that the Japanese fought to death for honor and their country Russians in Finland fought to death only because Soviet propaganda told them that the Finnish would torture captured enemies to \xef \xbb \xbf YoshiSnipz I remember reading that all commanders japanese on Iwo Jima didnt expect to come It is a good \xef \xbb \xbf Pero Peric At least in WW3 we will all die in half a day in a mushroom No winner and Just \xef \xbb \xbf yukari saito Letters from IWO JIMA I love this movie because I have seen this movie once and I was So this is a very sad true 69 years ago today is a day when Lieutenant General Kuribayashi unit attacked in full force and died an honorable was respected very much from his \xef \xbb \xbf kaorukusnao1 Japanese government Minister Shindo today grandson of the commander Kuribayashi Mother of Shindo got a daughter of his \xef \xbb \xbf Byron Henry Japan 2014 Anime and Squid \xef \xbb \xbf Alexander Wheatley beautiful film \xef \xbb \xbf Karanbir Gill Many of you might have noticed War is the same as it was since the There are any more \xef \xbb \xbf DearAmerica0704 Just please for at least once Don t think of Don t think either you re American nor Japanese Please just think as every single soilders as the same as your family Please notice the both countries citizens mourn and sadness of losing your loving I believe there shouldn t be any difference between anybody in these \xef \xbb \xbf Karl Gugulski Clint Eastwood is a genius \xef \xbb \xbf Dankwart Denkhardt The movie is touching but also On the one hand Eastwood built a fair and dignified memorial for the brave defenders and the vainness of their On the other hand you should not forget that especially the japanese army was probably the most inhuman and brutal one in \xef \xbb \xbf Spinnes One of the best Clint Eastwood movie \xef \xbb \xbf Philip Nilsson The russians during WW2 were 10 times worse than japan with wasting At stalingrad the russians sended in everything they could to stop the germans and i mean soldiers running towards fortafications cannon fire machineguns tanks german soldiers fire mines \xef \xbb \xbf Jacob Clausen great war lot of life lost \xef \xbb \xbf Cybermat47 One of the few movies that as good as Das I ca wait to see Flags of our \xef \xbb \xbf NSLForum Aldebaran Great Movie \xef \xbb \xbf nada us This makes wars appear heroic when they just \xef \xbb \xbf Nathan HO the war the cause or the government may not mater anymore Since it is in the past and they lost but the spirit and emotion of soldiers live beyond times \xef \xbb \xbf Jur2225 One of the saddest and best military war movies out \xef \xbb \xbf huntingvuk excellent movie \xef \xbb \xbf ancientsculpture fucking japs and yankees go at it nice \xef \xbb \xbf Zerpent I One of the best WW2 movies I Interesting to see the war from the Japanese \xef \xbb \xbf RagingBubuli FUCKING RAPIST \xef \xbb \xbf Big Nutjob This is the Darkest Period Of East Asia '
p52
asS'Lord of the Rings: The Two Towers'
p53
(lp54
S'Captain Fordo Is this the actual trailer from 2002 I was about years old in 2002 and have little memory of those days because I think it would be unlikely that they would reveal Gandalf resurrection in the Correct me if i wrong \xef \xbb \xbf Baaru Joseph this still remains to be one of my favorite have the Trilogy which i never lend \xef \xbb \xbf Cindy This movie was so good I had to rewind so many parts so see them over \xef \xbb \xbf Mary Price best movies and best reread and re watch the series EVERY year \xef \xbb \xbf Kelsey Baden An awesome trailer for an awesome movie \xef \xbb \xbf Audrey Selking I ca believe I waited a whole fucking year between Ugh the And now I can just pop in one after \xef \xbb \xbf OmegaSniper57 i cant wait for return of the king 12 years They finally made a third \xef \xbb \xbf Alexander Comley Haha so many memories I remember waiting a whole night for this trailer to load on my dads dial up and watching it about a thousand times lol \xef \xbb \xbf Artizaptres101 Requiem for a dream \xef \xbb \xbf Wendell Smitely The journey \xef \xbb \xbf WHALEEATER94 best trilogy of all time \xef \xbb \xbf Tertoth 1 38 And folks the national anthem of Youtube Requiem for a \xef \xbb \xbf jediking12 haha I like that tookmytrustookmyhope Requiem for a dream ftwTrish H One does not simply use this Nearlly 11 years on and this film still looks Ca wait to watch all 3 Parts of The Hobbit and LOTR Durgay peniles this makes me feel old but wise dwturner90 such a good trailer Snipergirl1140 i still dont get why 10000 uruks got defeated by at most 200 th 1 best movies of all timeShadowfaxcs To be is the best trailer i have ever if i have seen TLOTR more than 20 will watch it one more thanks to this You got that right thanks to those dick head amateur youtubers that love to over use it in fake sequel trailers just for the purpose of Bianchini SAM WAS IN THE MY GODWeezingful The books came out before the movies so I think that people already knew that Gandalf would return Trish H One does not simply use this '
p55
asS'Gladiator'
p56
(lp57
S'Kathy Miller Holy Galatians 3 Holy Psalm91 you are suppose to ask God to Holy impart and refill with the Holy Ghost and Keep on Keep on Fighting from praying Ephesian 2 \xef \xbb \xbf 123nightmaree epic movie and Hans Zimmer is greatClaudio Garcia Bom de TheActs2021 Wow now that much better than the original t None '
p58
asS'The Hurt Locker'
p59
(lp60
S'eddielong86 Hopefully Hawkeye and Falcon can team up again \xef \xbb \xbf czechmex88 I guess you could say When it comes to diffusing explosives i THE BOMB yeeeeeeaaaaaaaah XD Ian Hecox \xef \xbb \xbf MrQueenie What a One of my favorites of all time a true modern \xef \xbb \xbf ChrisOMahonyy One of if not the best movie i ever Very well made \xef \xbb \xbf WhyDidIJustEatThat These comments are making me lose hope in If you excuse me I going to take a cold shower sitting \xef \xbb \xbf fazz3173 I love this film \xef \xbb \xbf dollayx8 is that falcon \xef \xbb \xbf Fret Puke It good to see Jefferey moved on from eating young \xef \xbb \xbf bodder777 talk about immediate and way too on the mark Kathryn Bigelow Shattered a glass \xef \xbb \xbf \xce \xa6 \xcf \x89 \xcf \x84 \xce \xb7 \xcf \x82 \xce \xb1 \xce \xbd \xce \xb1 \xce \xb3 \xce \xbd \xce \xbf \xcf \x83 \xcf \x84 \xce \xb1 \xce \xba \xce \xbf \xcf \x82 SHIT UPLOAD THE FULL MOVIE \xef \xbb \xbf Joseph Flores People do think your Jeremy Renner and try to go for It a movie The military life IS NOT FOR \xef \xbb \xbf Troy Donahue nice \xef \xbb \xbf Luc Moutin What did you just say dude \xef \xbb \xbf canuckz I liked most of this The main character is a little cocky \xef \xbb \xbf Alvarez There is no doubt that this movie is quite \xef \xbb \xbf Vedang Joshi one of the best films ive seen \xef \xbb \xbf Carlos Villagra PAYDAY 2 BULDOZZER D \xef \xbb \xbf Istv \xc3 \xa1 n Tak \xc3 \xa1 cs This film is boring as \xef \xbb \xbf Mohd Shahrizan Mat Jali is this worth watching or just dumb propaganda etcetc like american heroes iraqis bombed their children american savior of the world and can not even get hit by bullets planning on watching this \xef \xbb \xbf goakofile lekganyane goodnight sweetdreams my Dale \xef \xbb \xbf TobyTheLemon1403 for how good the film is this trailor isnt very good \xef \xbb \xbf robert j mcgregor fuck you assholes 6 months ago i watched the whole movie fuck you eat shit and die with your fucking trailer \xef \xbb \xbf Th3SmartAlec you be As in Not As in Pushing up Dylan Healy Shitty movie probably the most unrealistic war Duke Leroy Is this based on a true story '
p61
as.