(dp1
S'City of God'
p2
(dp3
S'commentCount'
p4
F173
sS'viewCount'
p5
F407620
sS'favoriteCount'
p6
F0
sS'dislikeCount'
p7
F15
sS'likeCount'
p8
F40
ssS'Crouching Tiger, Hidden Dragon'
p9
(dp10
g4
F227
sg5
F386879
sg6
F0
sg7
F28
sg8
F296
ssS"Pan's Labyrinth"
p11
(dp12
g4
F15
sg5
F32267
sg6
F0
sg7
F3
sg8
F7
ssS'The Pianist'
p13
(dp14
g4
F4
sg5
F67843
sg6
F0
sg7
F7
sg8
F15
ssS'Brokeback Mountain'
p15
(dp16
g4
F130
sg5
F137065
sg6
F0
sg7
F34
sg8
F1064
ssS'Yi Yi'
p17
(dp18
g4
F11
sg5
F34571
sg6
F0
sg7
F2
sg8
F91
ssS'Avatar'
p19
(dp20
g4
F4055
sg5
F2445075
sg6
F0
sg7
F227
sg8
F34
ssS'Mulholland Dr'
p21
(dp22
g4
F6
sg5
F63495
sg6
F0
sg7
F6
sg8
F672
ssS'Lord of the Rings: The Return of the King'
p23
(dp24
g4
F781
sg5
F514787
sg6
F0
sg7
F40
sg8
F1635
ssS'The Departed'
p25
(dp26
g4
F506
sg5
F886327
sg6
F0
sg7
F43
sg8
F389
ssS'No Country for Old Men'
p27
(dp28
g4
F336
sg5
F563952
sg6
F0
sg7
F33
sg8
F100
ssS'There Will Be Blood'
p29
(dp30
g4
F2805
sg5
F1890034
sg6
F0
sg7
F136
sg8
F145
ssS'The Diving Bell and the Butterfly'
p31
(dp32
g4
F421
sg5
F644227
sg6
F0
sg7
F34
sg8
F715
ssS'Lord of the Rings: The Fellowship of the Rings'
p33
(dp34
g4
F204
sg5
F262110
sg6
F0
sg7
F29
sg8
F43
ssS'Traffic'
p35
(dp36
g4
F22
sg5
F64556
sg6
F0
sg7
F5
sg8
F9
ssS'Mystic River'
p37
(dp38
g4
F40
sg5
F157860
sg6
F0
sg7
F9
sg8
F28
ssS'Letters From Iwo Jima'
p39
(dp40
g4
F558
sg5
F300376
sg6
F0
sg7
F23
sg8
F273
ssS'Lord of the Rings: The Two Towers'
p41
(dp42
g4
F437
sg5
F518413
sg6
F0
sg7
F34
sg8
F29
ssS'Gladiator'
p43
(dp44
g4
F5
sg5
F72576
sg6
F0
sg7
F4
sg8
F33
ssS'The Hurt Locker'
p45
(dp46
g4
F7481
sg5
F4563165
sg6
F0
sg7
F585
sg8
F3
ss.